; Function Attrs: mustprogress nounwind uwtable
define hidden void @_ZN12JVMCIRuntime12post_compileEP10JavaThread(ptr noundef nonnull align 8 dereferenceable(93) %0, ptr nocapture noundef %1) local_unnamed_addr #0 align 2 {
  %3 = load i8, ptr @UseJVMCINativeLibrary, align 1
  %4 = trunc i8 %3 to i1
  br i1 %4, label %5, label %16

5:                                                ; preds = %2
  %6 = load i32, ptr @JVMCIThreadsPerNativeLibraryRuntime, align 4
  %7 = icmp eq i32 %6, 1
  %8 = load i32, ptr @JVMCICompilerIdleDelay, align 4
  %9 = icmp eq i32 %8, 0
  %10 = select i1 %7, i1 %9, i1 false
  br i1 %10, label %11, label %16

11:                                               ; preds = %5
  %12 = getelementptr inbounds i8, ptr %1, i64 1176
  %13 = load ptr, ptr %12, align 8
  %.not = icmp eq ptr %13, null
  br i1 %.not, label %16, label %14

14:                                               ; preds = %11
  %15 = tail call noundef zeroext i1 @_ZN12JVMCIRuntime13detach_threadEP10JavaThreadPKcb(ptr noundef nonnull align 8 dereferenceable(93) %0, ptr noundef nonnull %1, ptr noundef nonnull @.str.110, i1 noundef zeroext true)
  br label %16

16:                                               ; preds = %14, %11, %5, %2
  ret void
}